; Function Attrs: uwtable
define void @_ZTv0_n56_NK5arrow2io20TransformInputStream4TellEv(ptr noalias sret(%"class.arrow::Result.20") align 8 %agg.result, ptr nocapture noundef readonly %this) unnamed_addr #6 align 2 {
entry:
  %0 = load ptr, ptr %this, align 8
  %1 = getelementptr inbounds i8, ptr %0, i64 -56
  %2 = load i64, ptr %1, align 8
  %3 = getelementptr inbounds i8, ptr %this, i64 %2
  tail call void @_ZNK5arrow2io20TransformInputStream4TellEv(ptr sret(%"class.arrow::Result.20") align 8 %agg.result, ptr noundef nonnull align 8 dereferenceable(16) %3)
  ret void
}